target datalayout = "e-m:e-p270:32:32-p271:32:32-p272:64:64-i64:64-i128:128-f80:128-n8:16:32:64-S128"
target triple = "x86_64-pc-linux-gnu"

%"class.icu_77::MaybeStackArray" = type <{ ptr, i32, i8, [40 x i8], [3 x i8] }>
%"class.icu_77::CharString" = type { %"class.icu_77::MaybeStackArray", i32, [4 x i8] }
%"class.icu_77::StringPiece" = type <{ ptr, i32, [4 x i8] }>

@.str.4 = private unnamed_addr constant [3 x i8] c"1e\00", align 1
@_ZN6icu_7715MaybeStackArrayIcLi40EEC1Ev = weak_odr unnamed_addr alias void (ptr), ptr @_ZN6icu_7715MaybeStackArrayIcLi40EEC2Ev
@_ZN6icu_7715MaybeStackArrayIcLi40EED1Ev = weak_odr unnamed_addr alias void (ptr), ptr @_ZN6icu_7715MaybeStackArrayIcLi40EED2Ev

; Function Attrs: mustprogress nounwind uwtable
define linkonce_odr noundef i32 @_ZNK6icu_7711StringPiece6lengthEv(ptr noundef nonnull align 8 dereferenceable(12) %0) #0 comdat align 2 {
  %2 = alloca ptr, align 8
  store ptr %0, ptr %2, align 8, !tbaa !146
  %3 = load ptr, ptr %2, align 8
  %4 = getelementptr inbounds nuw %"class.icu_77::StringPiece", ptr %3, i32 0, i32 1
  %5 = load i32, ptr %4, align 8, !tbaa !148
  ret i32 %5
}

; Function Attrs: mustprogress nounwind uwtable
define linkonce_odr noundef ptr @_ZNK6icu_7711StringPiece4dataEv(ptr noundef nonnull align 8 dereferenceable(12) %0) #0 comdat align 2 {
  %2 = alloca ptr, align 8
  store ptr %0, ptr %2, align 8, !tbaa !146
  %3 = load ptr, ptr %2, align 8
  %4 = getelementptr inbounds nuw %"class.icu_77::StringPiece", ptr %3, i32 0, i32 0
  %5 = load ptr, ptr %4, align 8, !tbaa !150
  ret ptr %5
}

; Function Attrs: mustprogress nounwind uwtable
define weak_odr noundef nonnull align 1 dereferenceable(1) ptr @_ZNK6icu_7715MaybeStackArrayIcLi40EEixEl(ptr noundef nonnull align 8 dereferenceable(53) %0, i64 noundef %1) #0 comdat align 2 {
  %3 = alloca ptr, align 8
  %4 = alloca i64, align 8
  store ptr %0, ptr %3, align 8, !tbaa !3
  store i64 %1, ptr %4, align 8, !tbaa !18
  %5 = load ptr, ptr %3, align 8
  %6 = getelementptr inbounds nuw %"class.icu_77::MaybeStackArray", ptr %5, i32 0, i32 0
  %7 = load ptr, ptr %6, align 8, !tbaa !8
  %8 = load i64, ptr %4, align 8, !tbaa !18
  %9 = getelementptr inbounds i8, ptr %7, i64 %8
  ret ptr %9
}

; Function Attrs: mustprogress nounwind uwtable
define weak_odr noundef nonnull align 1 dereferenceable(1) ptr @_ZN6icu_7715MaybeStackArrayIcLi40EEixEl(ptr noundef nonnull align 8 dereferenceable(53) %0, i64 noundef %1) #0 comdat align 2 {
  %3 = alloca ptr, align 8
  %4 = alloca i64, align 8
  store ptr %0, ptr %3, align 8, !tbaa !3
  store i64 %1, ptr %4, align 8, !tbaa !18
  %5 = load ptr, ptr %3, align 8
  %6 = getelementptr inbounds nuw %"class.icu_77::MaybeStackArray", ptr %5, i32 0, i32 0
  %7 = load ptr, ptr %6, align 8, !tbaa !8
  %8 = load i64, ptr %4, align 8, !tbaa !18
  %9 = getelementptr inbounds i8, ptr %7, i64 %8
  ret ptr %9
}

; Function Attrs: mustprogress nounwind uwtable
define linkonce_odr void @_ZN6icu_7710CharStringD2Ev(ptr noundef nonnull align 8 dereferenceable(60) %0) unnamed_addr #0 comdat align 2 {
  %2 = alloca ptr, align 8
  store ptr %0, ptr %2, align 8, !tbaa !32
  %3 = load ptr, ptr %2, align 8
  %4 = getelementptr inbounds nuw %"class.icu_77::CharString", ptr %3, i32 0, i32 0
  call void @_ZN6icu_7715MaybeStackArrayIcLi40EED1Ev(ptr noundef nonnull align 8 dereferenceable(53) %4) #14
  ret void
}

; Function Attrs: mustprogress uwtable
define linkonce_odr noundef nonnull align 8 dereferenceable(60) ptr @_ZN6icu_7710CharString6appendENS_11StringPieceER10UErrorCode(ptr noundef nonnull align 8 dereferenceable(60) %0, ptr %1, i32 %2, ptr noundef nonnull align 4 dereferenceable(4) %3) #1 comdat align 2 {
  %5 = alloca %"class.icu_77::StringPiece", align 8
  %6 = alloca ptr, align 8
  %7 = alloca ptr, align 8
  %8 = getelementptr inbounds nuw { ptr, i32 }, ptr %5, i32 0, i32 0
  store ptr %1, ptr %8, align 8
  %9 = getelementptr inbounds nuw { ptr, i32 }, ptr %5, i32 0, i32 1
  store i32 %2, ptr %9, align 8
  store ptr %0, ptr %6, align 8, !tbaa !32
  store ptr %3, ptr %7, align 8, !tbaa !22
  %10 = load ptr, ptr %6, align 8
  %11 = call noundef ptr @_ZNK6icu_7711StringPiece4dataEv(ptr noundef nonnull align 8 dereferenceable(12) %5)
  %12 = call noundef i32 @_ZNK6icu_7711StringPiece6lengthEv(ptr noundef nonnull align 8 dereferenceable(12) %5)
  %13 = load ptr, ptr %7, align 8, !tbaa !22
  %14 = call noundef nonnull align 8 dereferenceable(60) ptr @_ZN6icu_7710CharString6appendEPKciR10UErrorCode(ptr noundef nonnull align 8 dereferenceable(60) %10, ptr noundef %11, i32 noundef %12, ptr noundef nonnull align 4 dereferenceable(4) %13)
  ret ptr %14
}

; Function Attrs: mustprogress nounwind uwtable
define linkonce_odr noundef nonnull align 8 dereferenceable(60) ptr @_ZN6icu_7710CharString5clearEv(ptr noundef nonnull align 8 dereferenceable(60) %0) #0 comdat align 2 {
  %2 = alloca ptr, align 8
  store ptr %0, ptr %2, align 8, !tbaa !32
  %3 = load ptr, ptr %2, align 8
  %4 = getelementptr inbounds nuw %"class.icu_77::CharString", ptr %3, i32 0, i32 1
  store i32 0, ptr %4, align 8, !tbaa !34
  %5 = getelementptr inbounds nuw %"class.icu_77::CharString", ptr %3, i32 0, i32 0
  %6 = call noundef nonnull align 1 dereferenceable(1) ptr @_ZN6icu_7715MaybeStackArrayIcLi40EEixEl(ptr noundef nonnull align 8 dereferenceable(53) %5, i64 noundef 0)
  store i8 0, ptr %6, align 1, !tbaa !36
  ret ptr %3
}

; Function Attrs: mustprogress nounwind uwtable
define linkonce_odr noundef signext i8 @_ZNK6icu_7710CharStringixEi(ptr noundef nonnull align 8 dereferenceable(60) %0, i32 noundef %1) #0 comdat align 2 {
  %3 = alloca ptr, align 8
  %4 = alloca i32, align 4
  store ptr %0, ptr %3, align 8, !tbaa !32
  store i32 %1, ptr %4, align 4, !tbaa !14
  %5 = load ptr, ptr %3, align 8
  %6 = getelementptr inbounds nuw %"class.icu_77::CharString", ptr %5, i32 0, i32 0
  %7 = load i32, ptr %4, align 4, !tbaa !14
  %8 = sext i32 %7 to i64
  %9 = call noundef nonnull align 1 dereferenceable(1) ptr @_ZNK6icu_7715MaybeStackArrayIcLi40EEixEl(ptr noundef nonnull align 8 dereferenceable(53) %6, i64 noundef %8)
  %10 = load i8, ptr %9, align 1, !tbaa !36
  ret i8 %10
}

; Function Attrs: mustprogress nounwind uwtable
define linkonce_odr noundef i32 @_ZNK6icu_7710CharString6lengthEv(ptr noundef nonnull align 8 dereferenceable(60) %0) #0 comdat align 2 {
  %2 = alloca ptr, align 8
  store ptr %0, ptr %2, align 8, !tbaa !32
  %3 = load ptr, ptr %2, align 8
  %4 = getelementptr inbounds nuw %"class.icu_77::CharString", ptr %3, i32 0, i32 1
  %5 = load i32, ptr %4, align 8, !tbaa !34
  ret i32 %5
}

; Function Attrs: mustprogress uwtable
define noundef i32 @_ZN6icu_7714countCharacterERKNS_10CharStringEc(ptr noundef nonnull align 8 dereferenceable(60) %0, i8 noundef signext %1) #1 {
  %3 = alloca ptr, align 8
  %4 = alloca i8, align 1
  %5 = alloca i32, align 4
  %6 = alloca i32, align 4
  %7 = alloca i32, align 4
  store ptr %0, ptr %3, align 8, !tbaa !32
  store i8 %1, ptr %4, align 1, !tbaa !36
  call void @llvm.lifetime.start.p0(i64 4, ptr %5) #14
  store i32 0, ptr %5, align 4, !tbaa !14
  call void @llvm.lifetime.start.p0(i64 4, ptr %6) #14
  store i32 0, ptr %6, align 4, !tbaa !14
  call void @llvm.lifetime.start.p0(i64 4, ptr %7) #14
  %8 = load ptr, ptr %3, align 8, !tbaa !32
  %9 = call noundef i32 @_ZNK6icu_7710CharString6lengthEv(ptr noundef nonnull align 8 dereferenceable(60) %8)
  store i32 %9, ptr %7, align 4, !tbaa !14
  br label %10

10:                                               ; preds = %27, %2
  %11 = load i32, ptr %6, align 4, !tbaa !14
  %12 = load i32, ptr %7, align 4, !tbaa !14
  %13 = icmp slt i32 %11, %12
  br i1 %13, label %15, label %14

14:                                               ; preds = %10
  call void @llvm.lifetime.end.p0(i64 4, ptr %7) #14
  call void @llvm.lifetime.end.p0(i64 4, ptr %6) #14
  br label %30

15:                                               ; preds = %10
  %16 = load ptr, ptr %3, align 8, !tbaa !32
  %17 = load i32, ptr %6, align 4, !tbaa !14
  %18 = call noundef signext i8 @_ZNK6icu_7710CharStringixEi(ptr noundef nonnull align 8 dereferenceable(60) %16, i32 noundef %17)
  %19 = sext i8 %18 to i32
  %20 = load i8, ptr %4, align 1, !tbaa !36
  %21 = sext i8 %20 to i32
  %22 = icmp eq i32 %19, %21
  br i1 %22, label %23, label %26

23:                                               ; preds = %15
  %24 = load i32, ptr %5, align 4, !tbaa !14
  %25 = add nsw i32 %24, 1
  store i32 %25, ptr %5, align 4, !tbaa !14
  br label %26

26:                                               ; preds = %23, %15
  br label %27

27:                                               ; preds = %26
  %28 = load i32, ptr %6, align 4, !tbaa !14
  %29 = add nsw i32 %28, 1
  store i32 %29, ptr %6, align 4, !tbaa !14
  br label %10, !llvm.loop !114

30:                                               ; preds = %14
  %31 = load i32, ptr %5, align 4, !tbaa !14
  call void @llvm.lifetime.end.p0(i64 4, ptr %5) #14
  ret i32 %31
}

; Function Attrs: inlinehint mustprogress nounwind uwtable
define internal noundef signext i8 @_ZL9U_FAILURE10UErrorCode(i32 noundef %0) #2 {
  %2 = alloca i32, align 4
  store i32 %0, ptr %2, align 4, !tbaa !15
  %3 = load i32, ptr %2, align 4, !tbaa !15
  %4 = icmp sgt i32 %3, 0
  %5 = zext i1 %4 to i8
  ret i8 %5
}

; Function Attrs: mustprogress uwtable
define linkonce_odr void @_ZN6icu_7710CharStringC2Ev(ptr noundef nonnull align 8 dereferenceable(60) %0) unnamed_addr #1 comdat align 2 {
  %2 = alloca ptr, align 8
  store ptr %0, ptr %2, align 8, !tbaa !32
  %3 = load ptr, ptr %2, align 8
  %4 = getelementptr inbounds nuw %"class.icu_77::CharString", ptr %3, i32 0, i32 0
  call void @_ZN6icu_7715MaybeStackArrayIcLi40EEC1Ev(ptr noundef nonnull align 8 dereferenceable(53) %4)
  %5 = getelementptr inbounds nuw %"class.icu_77::CharString", ptr %3, i32 0, i32 1
  store i32 0, ptr %5, align 8, !tbaa !34
  %6 = getelementptr inbounds nuw %"class.icu_77::CharString", ptr %3, i32 0, i32 0
  %7 = call noundef nonnull align 1 dereferenceable(1) ptr @_ZN6icu_7715MaybeStackArrayIcLi40EEixEl(ptr noundef nonnull align 8 dereferenceable(53) %6, i64 noundef 0)
  store i8 0, ptr %7, align 1, !tbaa !36
  ret void
}

; Function Attrs: mustprogress uwtable
define void @_ZN6icu_7718getConstantsStringEmR10UErrorCode(ptr dead_on_unwind noalias writable sret(%"class.icu_77::CharString") align 8 %0, i64 noundef %1, ptr noundef nonnull align 4 dereferenceable(4) %2) #1 personality ptr @__gxx_personality_v0 {
  %4 = alloca ptr, align 8
  %5 = alloca i64, align 8
  %6 = alloca ptr, align 8
  %7 = alloca i1, align 1
  %8 = alloca ptr, align 8
  %9 = alloca i32, align 4
  %10 = alloca i32, align 4
  %11 = alloca i32, align 4
  %12 = alloca %"class.icu_77::StringPiece", align 8
  store ptr %0, ptr %4, align 8
  store i64 %1, ptr %5, align 8, !tbaa !18
  store ptr %2, ptr %6, align 8, !tbaa !22
  store i1 false, ptr %7, align 1
  call void @_ZN6icu_7710CharStringC2Ev(ptr noundef nonnull align 8 dereferenceable(60) %0)
  %13 = load i64, ptr %5, align 8, !tbaa !18
  %14 = load ptr, ptr %6, align 8, !tbaa !22
  %15 = invoke noundef nonnull align 8 dereferenceable(60) ptr @_ZN6icu_7710CharString12appendNumberElR10UErrorCode(ptr noundef nonnull align 8 dereferenceable(60) %0, i64 noundef %13, ptr noundef nonnull align 4 dereferenceable(4) %14)
          to label %16 unwind label %23

16:                                               ; preds = %3
  %17 = load ptr, ptr %6, align 8, !tbaa !22
  %18 = load i32, ptr %17, align 4, !tbaa !15
  %19 = invoke noundef signext i8 @_ZL9U_FAILURE10UErrorCode(i32 noundef %18)
          to label %20 unwind label %23

20:                                               ; preds = %16
  %21 = icmp ne i8 %19, 0
  br i1 %21, label %22, label %27

22:                                               ; preds = %20
  store i1 true, ptr %7, align 1
  store i32 1, ptr %10, align 4
  br label %65

23:                                               ; preds = %16, %3
  %24 = landingpad { ptr, i32 }
          cleanup
  %25 = extractvalue { ptr, i32 } %24, 0
  store ptr %25, ptr %8, align 8
  %26 = extractvalue { ptr, i32 } %24, 1
  store i32 %26, ptr %9, align 4
  br label %69

27:                                               ; preds = %20
  %28 = load i64, ptr %5, align 8, !tbaa !18
  %29 = icmp ule i64 %28, 1000
  br i1 %29, label %30, label %31

30:                                               ; preds = %27
  store i1 true, ptr %7, align 1
  store i32 1, ptr %10, align 4
  br label %65

31:                                               ; preds = %27
  call void @llvm.lifetime.start.p0(i64 4, ptr %11) #14
  %32 = invoke noundef i32 @_ZN6icu_7714countCharacterERKNS_10CharStringEc(ptr noundef nonnull align 8 dereferenceable(60) %0, i8 noundef signext 48)
          to label %33 unwind label %60

33:                                               ; preds = %31
  store i32 %32, ptr %11, align 4, !tbaa !14
  %34 = load i32, ptr %11, align 4, !tbaa !14
  %35 = invoke noundef i32 @_ZNK6icu_7710CharString6lengthEv(ptr noundef nonnull align 8 dereferenceable(60) %0)
          to label %36 unwind label %60

36:                                               ; preds = %33
  %37 = sub nsw i32 %35, 1
  %38 = icmp eq i32 %34, %37
  br i1 %38, label %39, label %64

39:                                               ; preds = %36
  %40 = invoke noundef signext i8 @_ZNK6icu_7710CharStringixEi(ptr noundef nonnull align 8 dereferenceable(60) %0, i32 noundef 0)
          to label %41 unwind label %60

41:                                               ; preds = %39
  %42 = sext i8 %40 to i32
  %43 = icmp eq i32 %42, 49
  br i1 %43, label %44, label %64

44:                                               ; preds = %41
  %45 = invoke noundef nonnull align 8 dereferenceable(60) ptr @_ZN6icu_7710CharString5clearEv(ptr noundef nonnull align 8 dereferenceable(60) %0)
          to label %46 unwind label %60

46:                                               ; preds = %44
  invoke void @_ZN6icu_7711StringPieceC1EPKc(ptr noundef nonnull align 8 dereferenceable(12) %12, ptr noundef @.str.4)
          to label %47 unwind label %60

47:                                               ; preds = %46
  %48 = load ptr, ptr %6, align 8, !tbaa !22
  %49 = getelementptr inbounds nuw { ptr, i32 }, ptr %12, i32 0, i32 0
  %50 = load ptr, ptr %49, align 8
  %51 = getelementptr inbounds nuw { ptr, i32 }, ptr %12, i32 0, i32 1
  %52 = load i32, ptr %51, align 8
  %53 = invoke noundef nonnull align 8 dereferenceable(60) ptr @_ZN6icu_7710CharString6appendENS_11StringPieceER10UErrorCode(ptr noundef nonnull align 8 dereferenceable(60) %0, ptr %50, i32 %52, ptr noundef nonnull align 4 dereferenceable(4) %48)
          to label %54 unwind label %60

54:                                               ; preds = %47
  %55 = load i32, ptr %11, align 4, !tbaa !14
  %56 = sext i32 %55 to i64
  %57 = load ptr, ptr %6, align 8, !tbaa !22
  %58 = invoke noundef nonnull align 8 dereferenceable(60) ptr @_ZN6icu_7710CharString12appendNumberElR10UErrorCode(ptr noundef nonnull align 8 dereferenceable(60) %0, i64 noundef %56, ptr noundef nonnull align 4 dereferenceable(4) %57)
          to label %59 unwind label %60

59:                                               ; preds = %54
  br label %64

60:                                               ; preds = %54, %47, %46, %44, %39, %33, %31
  %61 = landingpad { ptr, i32 }
          cleanup
  %62 = extractvalue { ptr, i32 } %61, 0
  store ptr %62, ptr %8, align 8
  %63 = extractvalue { ptr, i32 } %61, 1
  store i32 %63, ptr %9, align 4
  call void @llvm.lifetime.end.p0(i64 4, ptr %11) #14
  br label %69

64:                                               ; preds = %59, %41, %36
  store i1 true, ptr %7, align 1
  store i32 1, ptr %10, align 4
  call void @llvm.lifetime.end.p0(i64 4, ptr %11) #14
  br label %65

65:                                               ; preds = %64, %30, %22
  %66 = load i1, ptr %7, align 1
  br i1 %66, label %68, label %67

67:                                               ; preds = %65
  call void @_ZN6icu_7710CharStringD2Ev(ptr noundef nonnull align 8 dereferenceable(60) %0) #14
  br label %68

68:                                               ; preds = %67, %65
  ret void

69:                                               ; preds = %60, %23
  call void @_ZN6icu_7710CharStringD2Ev(ptr noundef nonnull align 8 dereferenceable(60) %0) #14
  br label %70

70:                                               ; preds = %69
  %71 = load ptr, ptr %8, align 8
  %72 = load i32, ptr %9, align 4
  %73 = insertvalue { ptr, i32 } poison, ptr %71, 0
  %74 = insertvalue { ptr, i32 } %73, i32 %72, 1
  resume { ptr, i32 } %74
}