; Function Attrs: mustprogress uwtable
define void @_ZN6icu_7718getConstantsStringEmR10UErrorCode(ptr dead_on_unwind noalias writable sret(%"class.icu_77::CharString") align 8 %0, i64 noundef %1, ptr noundef nonnull align 4 dereferenceable(4) %2) local_unnamed_addr #1 personality ptr @__gxx_personality_v0 {
  %4 = alloca %"class.icu_77::StringPiece", align 8
  tail call void @_ZN6icu_7715MaybeStackArrayIcLi40EEC1Ev(ptr noundef nonnull align 8 dereferenceable(60) %0)
  %5 = getelementptr inbounds nuw i8, ptr %0, i64 56
  store i32 0, ptr %5, align 8, !tbaa !15
  %6 = load ptr, ptr %0, align 8, !tbaa !3
  store i8 0, ptr %6, align 1, !tbaa !17
  %7 = invoke noundef nonnull align 8 dereferenceable(60) ptr @_ZN6icu_7710CharString12appendNumberElR10UErrorCode(ptr noundef nonnull align 8 dereferenceable(60) %0, i64 noundef %1, ptr noundef nonnull align 4 dereferenceable(4) %2)
          to label %8 unwind label %12

8:                                                ; preds = %3
  %9 = load i32, ptr %2, align 4, !tbaa !13
  %10 = icmp sgt i32 %9, 0
  %11 = icmp ult i64 %1, 1001
  %or.cond = or i1 %11, %10
  br i1 %or.cond, label %39, label %14

12:                                               ; preds = %3
  %13 = landingpad { ptr, i32 }
          cleanup
  br label %40

14:                                               ; preds = %8
  %15 = load i32, ptr %5, align 8, !tbaa !15
  %16 = icmp sgt i32 %15, 0
  br i1 %16, label %.lr.ph.i, label %_ZN6icu_7714countCharacterERKNS_10CharStringEc.exit

.lr.ph.i:                                         ; preds = %14
  %17 = load ptr, ptr %0, align 8, !tbaa !3
  %wide.trip.count.i = zext nneg i32 %15 to i64
  br label %18

18:                                               ; preds = %18, %.lr.ph.i
  %indvars.iv.i = phi i64 [ 0, %.lr.ph.i ], [ %indvars.iv.next.i, %18 ]
  %.010.i = phi i32 [ 0, %.lr.ph.i ], [ %spec.select.i, %18 ]
  %19 = getelementptr inbounds nuw i8, ptr %17, i64 %indvars.iv.i
  %20 = load i8, ptr %19, align 1, !tbaa !17
  %21 = icmp eq i8 %20, 48
  %22 = zext i1 %21 to i32
  %spec.select.i = add nuw nsw i32 %.010.i, %22
  %indvars.iv.next.i = add nuw nsw i64 %indvars.iv.i, 1
  %exitcond.not.i = icmp eq i64 %indvars.iv.next.i, %wide.trip.count.i
  br i1 %exitcond.not.i, label %_ZN6icu_7714countCharacterERKNS_10CharStringEc.exit, label %18, !llvm.loop !118

_ZN6icu_7714countCharacterERKNS_10CharStringEc.exit: ; preds = %18, %14
  %.0.lcssa.i = phi i32 [ 0, %14 ], [ %spec.select.i, %18 ]
  %23 = add nsw i32 %15, -1
  %24 = icmp eq i32 %.0.lcssa.i, %23
  br i1 %24, label %25, label %39

25:                                               ; preds = %_ZN6icu_7714countCharacterERKNS_10CharStringEc.exit
  %26 = load ptr, ptr %0, align 8, !tbaa !3
  %27 = load i8, ptr %26, align 1, !tbaa !17
  %28 = icmp eq i8 %27, 49
  br i1 %28, label %29, label %39

29:                                               ; preds = %25
  store i32 0, ptr %5, align 8, !tbaa !15
  store i8 0, ptr %26, align 1, !tbaa !17
  invoke void @_ZN6icu_7711StringPieceC1EPKc(ptr noundef nonnull align 8 dereferenceable(12) %4, ptr noundef nonnull @.str.4)
          to label %30 unwind label %37

30:                                               ; preds = %29
  %31 = load ptr, ptr %4, align 8
  %32 = getelementptr inbounds nuw i8, ptr %4, i64 8
  %33 = load i32, ptr %32, align 8
  %34 = invoke noundef nonnull align 8 dereferenceable(60) ptr @_ZN6icu_7710CharString6appendEPKciR10UErrorCode(ptr noundef nonnull align 8 dereferenceable(60) %0, ptr noundef %31, i32 noundef %33, ptr noundef nonnull align 4 dereferenceable(4) %2)
          to label %_ZN6icu_7710CharString6appendENS_11StringPieceER10UErrorCode.exit unwind label %37

_ZN6icu_7710CharString6appendENS_11StringPieceER10UErrorCode.exit: ; preds = %30
  %35 = sext i32 %.0.lcssa.i to i64
  %36 = invoke noundef nonnull align 8 dereferenceable(60) ptr @_ZN6icu_7710CharString12appendNumberElR10UErrorCode(ptr noundef nonnull align 8 dereferenceable(60) %0, i64 noundef %35, ptr noundef nonnull align 4 dereferenceable(4) %2)
          to label %39 unwind label %37

37:                                               ; preds = %30, %_ZN6icu_7710CharString6appendENS_11StringPieceER10UErrorCode.exit, %29
  %38 = landingpad { ptr, i32 }
          cleanup
  br label %40

39:                                               ; preds = %8, %_ZN6icu_7710CharString6appendENS_11StringPieceER10UErrorCode.exit, %25, %_ZN6icu_7714countCharacterERKNS_10CharStringEc.exit
  ret void

40:                                               ; preds = %37, %12
  %.pn = phi { ptr, i32 } [ %38, %37 ], [ %13, %12 ]
  call void @_ZN6icu_7715MaybeStackArrayIcLi40EED1Ev(ptr noundef nonnull align 8 dereferenceable(60) %0) #18
  resume { ptr, i32 } %.pn
}